(dp0
Vtitle
p1
Vjytrj
p2
sVimage_path
p3
V../static/img/Submitted_Images/2018-03/Feature/jytrj.jpg
p4
sVauthor
p5
Vfdsaf
p6
sVbody
p7
Vfdsafrujytry
p8
sVtype
p9
VFeature
p10
sVdate
p11
VMarch 24
p12
s.