(dp0
Vtitle
p1
Vgwergfesh
p2
sVimage_path
p3
V../static/img/Submitted_Images/2018-03/Sports/gwergfesh.jpg
p4
sVauthor
p5
Vfewafea
p6
sVbody
p7
Vgsdfngfsngrsh
p8
sVtype
p9
VSports
p10
sVdate
p11
VMarch 24
p12
s.