(dp0
Vtitle
p1
Vgfdsg
p2
sVimage_path
p3
V../static/img/Submitted_Images/2018-03/Flipside/gfdsg.jpg
p4
sVauthor
p5
Vhdtekyte
p6
sVbody
p7
Vey5kej
p8
sVtype
p9
VFlipside
p10
sVdate
p11
VMarch 24
p12
s.