(dp0
Vtitle
p1
Vhye5mjytdnd
p2
sVimage_path
p3
V../static/img/Submitted_Images/2018-03/Flipside/hye5mjytdnd.jpg
p4
sVauthor
p5
Vherwhshsdf
p6
sVbody
p7
Vsdhshsrtntw
p8
sVtype
p9
VFlipside
p10
sVdate
p11
VMarch 24
p12
s.