(dp0
Vtitle
p1
Vrwjwjwr
p2
sVimage_path
p3
V../static/img/Submitted_Images/2018-03/Flipside/rwjwjwr.jpg
p4
sVauthor
p5
Vhseershq
p6
sVbody
p7
Vghtrwjtrwjwe
p8
sVtype
p9
VFlipside
p10
sVdate
p11
VMarch 24
p12
s.