(dp0
Vtitle
p1
Vanimal
p2
sVimage_path
p3
V../static/img/Submitted_Images/2018-03/Entertainment/animal.jpg
p4
sVauthor
p5
Vdog
p6
sVbody
p7
Vjogearog
p8
sVtype
p9
VEntertainment
p10
sVdate
p11
VMarch 24
p12
s.