(dp0
Vtitle
p1
Vui;o;ui;ui
p2
sVimage_path
p3
V../static/img/Submitted_Images/2018-03/Entertainment/ui;o;ui;ui.jpg
p4
sVauthor
p5
Vl,.tu/
p6
sVbody
p7
V;iu;oui;
p8
sVtype
p9
VEntertainment
p10
sVdate
p11
VMarch 24
p12
s.