(dp0
Vtitle
p1
Vtwqe
p2
sVimage_path
p3
VSubmitted_Articles\u005c2018-02\u005cEntertainment\u005ctwqe.jpg
p4
sVauthor
p5
Vtwqe
p6
sVbody
p7
Vtqwe
p8
sVtype
p9
VEntertainment
p10
sVdate
p11
VFebruary 10
p12
s.