(dp0
Vtitle
p1
Vjyrmyurf,
p2
sVimage_path
p3
V../static/img/Submitted_Images/2018-03/News/jyrmyurf,.jpg
p4
sVauthor
p5
Vtrjytr,ktds
p6
sVbody
p7
Vjytryjeyr
p8
sVtype
p9
VNews
p10
sVdate
p11
VMarch 24
p12
s.