(dp0
Vtitle
p1
Vngfdngfd
p2
sVimage_path
p3
V../static/img/Submitted_Images/2018-03/News/ngfdngfd.jpg
p4
sVauthor
p5
Vhfdshdsf
p6
sVbody
p7
Vndfgndnd
p8
sVtype
p9
VNews
p10
sVdate
p11
VMarch 24
p12
s.