(dp0
Vtitle
p1
Vtrwjrte
p2
sVimage_path
p3
V../static/img/Submitted_Images/2018-03/News/trwjrte.jpg
p4
sVauthor
p5
Vjrwjeyr
p6
sVbody
p7
Vw4ujw45uw45u4wh
p8
sVtype
p9
VNews
p10
sVdate
p11
VMarch 24
p12
s.